; Function Attrs: mustprogress nofree norecurse nosync nounwind willreturn memory(read, inaccessiblemem: none) uwtable
define hidden noundef ptr @_Z12opt_filenameP7OPTARGS(ptr noundef readonly %0) local_unnamed_addr #0 {
  %2 = icmp eq ptr %0, null
  br i1 %2, label %17, label %3

3:                                                ; preds = %1
  %4 = getelementptr inbounds i8, ptr %0, i64 12
  %5 = load i32, ptr %4, align 4
  %6 = icmp eq i32 %5, 0
  br i1 %6, label %7, label %9

7:                                                ; preds = %3
  %8 = getelementptr inbounds i8, ptr %0, i64 72
  br label %17

9:                                                ; preds = %3
  %10 = getelementptr inbounds i8, ptr %0, i64 40
  %11 = load ptr, ptr %10, align 8
  %12 = getelementptr inbounds i8, ptr %0, i64 56
  %13 = load i32, ptr %12, align 8
  %14 = sext i32 %13 to i64
  %15 = getelementptr inbounds ptr, ptr %11, i64 %14
  %16 = load ptr, ptr %15, align 8
  br label %17

17:                                               ; preds = %1, %9, %7
  %.0 = phi ptr [ %8, %7 ], [ %16, %9 ], [ null, %1 ]
  ret ptr %.0
}